; Function Attrs: mustprogress nounwind uwtable
define internal fastcc void @"_ZZZN9grpc_core12_GLOBAL__N_124GoogleCloud2ProdResolver11StartLockedEvEN3$_0clENSt7__cxx1112basic_stringIcSt11char_traitsIcESaIcEEEN4absl12lts_202308028StatusOrIS8_EEENUlvE_D2Ev"(ptr noundef nonnull align 8 dereferenceable(48) %this) unnamed_addr #8 align 2 personality ptr @__gxx_personality_v0 {
entry:
  %0 = getelementptr inbounds i8, ptr %this, i64 8
  %1 = load i64, ptr %0, align 8
  %cmp.i.i.i.i = icmp eq i64 %1, 0
  br i1 %cmp.i.i.i.i, label %_ZN4absl12lts_202308026StatusD2Ev.exit.i.i, label %if.else.i.i

_ZN4absl12lts_202308026StatusD2Ev.exit.i.i:       ; preds = %entry
  %2 = getelementptr inbounds i8, ptr %this, i64 16
  tail call void @_ZNSt7__cxx1112basic_stringIcSt11char_traitsIcESaIcEED1Ev(ptr noundef nonnull align 8 dereferenceable(32) %2) #18
  br label %_ZN4absl12lts_202308028StatusOrINSt7__cxx1112basic_stringIcSt11char_traitsIcESaIcEEEED2Ev.exit

if.else.i.i:                                      ; preds = %entry
  %and.i.i.i1.i.i = and i64 %1, 1
  %cmp.i.i.i2.i.i = icmp eq i64 %and.i.i.i1.i.i, 0
  br i1 %cmp.i.i.i2.i.i, label %_ZN4absl12lts_202308028StatusOrINSt7__cxx1112basic_stringIcSt11char_traitsIcESaIcEEEED2Ev.exit, label %if.then.i.i3.i.i

if.then.i.i3.i.i:                                 ; preds = %if.else.i.i
  invoke void @_ZN4absl12lts_202308026Status15UnrefNonInlinedEm(i64 noundef %1)
          to label %_ZN4absl12lts_202308028StatusOrINSt7__cxx1112basic_stringIcSt11char_traitsIcESaIcEEEED2Ev.exit unwind label %terminate.lpad.i4.i.i

terminate.lpad.i4.i.i:                            ; preds = %if.then.i.i3.i.i
  %3 = landingpad { ptr, i32 }
          catch ptr null
  %4 = extractvalue { ptr, i32 } %3, 0
  tail call void @__clang_call_terminate(ptr %4) #20
  unreachable

_ZN4absl12lts_202308028StatusOrINSt7__cxx1112basic_stringIcSt11char_traitsIcESaIcEEEED2Ev.exit: ; preds = %_ZN4absl12lts_202308026StatusD2Ev.exit.i.i, %if.else.i.i, %if.then.i.i3.i.i
  %this.val = load ptr, ptr %this, align 8
  %cmp.not.i = icmp eq ptr %this.val, null
  br i1 %cmp.not.i, label %_ZN9grpc_core13RefCountedPtrINS_12_GLOBAL__N_124GoogleCloud2ProdResolverEED2Ev.exit, label %if.then.i

if.then.i:                                        ; preds = %_ZN4absl12lts_202308028StatusOrINSt7__cxx1112basic_stringIcSt11char_traitsIcESaIcEEEED2Ev.exit
  %refs_.i.i = getelementptr inbounds i8, ptr %this.val, i64 8
  %5 = atomicrmw sub ptr %refs_.i.i, i64 1 acq_rel, align 8
  %cmp.i.i.i = icmp eq i64 %5, 1
  br i1 %cmp.i.i.i, label %if.then.i.i, label %_ZN9grpc_core13RefCountedPtrINS_12_GLOBAL__N_124GoogleCloud2ProdResolverEED2Ev.exit

if.then.i.i:                                      ; preds = %if.then.i
  %vtable.i.i.i = load ptr, ptr %this.val, align 8
  %vfn.i.i.i = getelementptr inbounds i8, ptr %vtable.i.i.i, i64 16
  %6 = load ptr, ptr %vfn.i.i.i, align 8
  tail call void %6(ptr noundef nonnull align 8 dereferenceable(16) %this.val) #18
  br label %_ZN9grpc_core13RefCountedPtrINS_12_GLOBAL__N_124GoogleCloud2ProdResolverEED2Ev.exit

_ZN9grpc_core13RefCountedPtrINS_12_GLOBAL__N_124GoogleCloud2ProdResolverEED2Ev.exit: ; preds = %_ZN4absl12lts_202308028StatusOrINSt7__cxx1112basic_stringIcSt11char_traitsIcESaIcEEEED2Ev.exit, %if.then.i, %if.then.i.i
  ret void
}